target datalayout = "e-m:e-p270:32:32-p271:32:32-p272:64:64-i64:64-i128:128-f80:128-n8:16:32:64-S128"
target triple = "x86_64-pc-linux-gnu"

@endpos = internal global i64 0, align 8
@verbose = internal global i32 0, align 4
@time_to_stop = internal global i32 0, align 4
@stop_streaming.prevtimeline = internal global i32 0, align 4
@stop_streaming.prevpos = internal global i64 0, align 8
@.str.101 = private unnamed_addr constant [40 x i8] c"finished segment at %X/%X (timeline %u)\00", align 1
@.str.102 = private unnamed_addr constant [45 x i8] c"stopped log streaming at %X/%X (timeline %u)\00", align 1
@.str.103 = private unnamed_addr constant [33 x i8] c"switched to timeline %u at %X/%X\00", align 1
@.str.104 = private unnamed_addr constant [35 x i8] c"received interrupt signal, exiting\00", align 1

; Function Attrs: nounwind uwtable
define internal zeroext i1 @stop_streaming(i64 noundef %0, i32 noundef %1, i1 noundef zeroext %2) #0 {
  %4 = alloca i1, align 1
  %5 = alloca i64, align 8
  %6 = alloca i32, align 4
  %7 = alloca i8, align 1
  %8 = alloca i32, align 4
  %9 = alloca i32, align 4
  %10 = alloca i32, align 4
  store i64 %0, ptr %5, align 8
  store i32 %1, ptr %6, align 4
  %11 = zext i1 %2 to i8
  store i8 %11, ptr %7, align 1
  %12 = load i32, ptr @verbose, align 4
  %13 = icmp ne i32 %12, 0
  br i1 %13, label %14, label %26

14:                                               ; preds = %3
  %15 = load i8, ptr %7, align 1, !range !6, !noundef !7
  %16 = trunc i8 %15 to i1
  br i1 %16, label %17, label %26

17:                                               ; preds = %14
  br label %18

18:                                               ; preds = %17
  br label %19

19:                                               ; preds = %18
  store i32 1, ptr %8, align 4
  %20 = load i64, ptr %5, align 8
  %21 = lshr i64 %20, 32
  %22 = trunc i64 %21 to i32
  %23 = load i64, ptr %5, align 8
  %24 = trunc i64 %23 to i32
  %25 = load i32, ptr %6, align 4
  call void (i32, i32, ptr, ...) @pg_log_generic(i32 noundef 2, i32 noundef 0, ptr noundef @.str.101, i32 noundef %22, i32 noundef %24, i32 noundef %25)
  br label %26

26:                                               ; preds = %19, %14, %3
  %27 = load i64, ptr @endpos, align 8
  %28 = icmp eq i64 %27, 0
  br i1 %28, label %46, label %29

29:                                               ; preds = %26
  %30 = load i64, ptr @endpos, align 8
  %31 = load i64, ptr %5, align 8
  %32 = icmp ult i64 %30, %31
  br i1 %32, label %33, label %46

33:                                               ; preds = %29
  %34 = load i32, ptr @verbose, align 4
  %35 = icmp ne i32 %34, 0
  br i1 %35, label %36, label %45

36:                                               ; preds = %33
  br label %37

37:                                               ; preds = %36
  br label %38

38:                                               ; preds = %37
  store i32 1, ptr %9, align 4
  %39 = load i64, ptr %5, align 8
  %40 = lshr i64 %39, 32
  %41 = trunc i64 %40 to i32
  %42 = load i64, ptr %5, align 8
  %43 = trunc i64 %42 to i32
  %44 = load i32, ptr %6, align 4
  call void (i32, i32, ptr, ...) @pg_log_generic(i32 noundef 2, i32 noundef 0, ptr noundef @.str.102, i32 noundef %41, i32 noundef %43, i32 noundef %44)
  br label %45

45:                                               ; preds = %38, %33
  store volatile i32 1, ptr @time_to_stop, align 4
  store i1 true, ptr %4, align 1
  br label %76

46:                                               ; preds = %29, %26
  %47 = load i32, ptr @verbose, align 4
  %48 = icmp ne i32 %47, 0
  br i1 %48, label %49, label %65

49:                                               ; preds = %46
  %50 = load i32, ptr @stop_streaming.prevtimeline, align 4
  %51 = icmp ne i32 %50, 0
  br i1 %51, label %52, label %65

52:                                               ; preds = %49
  %53 = load i32, ptr @stop_streaming.prevtimeline, align 4
  %54 = load i32, ptr %6, align 4
  %55 = icmp ne i32 %53, %54
  br i1 %55, label %56, label %65

56:                                               ; preds = %52
  %57 = load i32, ptr %6, align 4
  br label %58

58:                                               ; preds = %56
  br label %59

59:                                               ; preds = %58
  store i32 1, ptr %10, align 4
  %60 = load i64, ptr @stop_streaming.prevpos, align 8
  %61 = lshr i64 %60, 32
  %62 = trunc i64 %61 to i32
  %63 = load i64, ptr @stop_streaming.prevpos, align 8
  %64 = trunc i64 %63 to i32
  call void (i32, i32, ptr, ...) @pg_log_generic(i32 noundef 2, i32 noundef 0, ptr noundef @.str.103, i32 noundef %57, i32 noundef %62, i32 noundef %64)
  br label %65

65:                                               ; preds = %59, %52, %49, %46
  %66 = load i32, ptr %6, align 4
  store i32 %66, ptr @stop_streaming.prevtimeline, align 4
  %67 = load i64, ptr %5, align 8
  store i64 %67, ptr @stop_streaming.prevpos, align 8
  %68 = load volatile i32, ptr @time_to_stop, align 4
  %69 = icmp ne i32 %68, 0
  br i1 %69, label %70, label %75

70:                                               ; preds = %65
  %71 = load i32, ptr @verbose, align 4
  %72 = icmp ne i32 %71, 0
  br i1 %72, label %73, label %74

73:                                               ; preds = %70
  call void (i32, i32, ptr, ...) @pg_log_generic(i32 noundef 2, i32 noundef 0, ptr noundef @.str.104)
  br label %74

74:                                               ; preds = %73, %70
  store i1 true, ptr %4, align 1
  br label %76

75:                                               ; preds = %65
  store i1 false, ptr %4, align 1
  br label %76

76:                                               ; preds = %75, %74, %45
  %77 = load i1, ptr %4, align 1
  ret i1 %77
}