; Function Attrs: nounwind uwtable
define internal noundef zeroext i1 @stop_streaming(i64 noundef %0, i32 noundef %1, i1 noundef zeroext %2) #4 {
  %4 = load i32, ptr @verbose, align 4
  %.not = icmp ne i32 %4, 0
  %brmerge.not = and i1 %2, %.not
  br i1 %brmerge.not, label %5, label %9

5:                                                ; preds = %3
  %6 = lshr i64 %0, 32
  %7 = trunc nuw i64 %6 to i32
  %8 = trunc i64 %0 to i32
  tail call void (i32, i32, ptr, ...) @pg_log_generic(i32 noundef 2, i32 noundef 0, ptr noundef nonnull @.str.101, i32 noundef %7, i32 noundef %8, i32 noundef %1) #12
  br label %9

9:                                                ; preds = %3, %5
  %10 = load i64, ptr @endpos, align 8
  %11 = icmp ne i64 %10, 0
  %12 = icmp ult i64 %10, %0
  %or.cond22 = and i1 %11, %12
  %13 = load i32, ptr @verbose, align 4
  %.not17 = icmp eq i32 %13, 0
  br i1 %or.cond22, label %14, label %20

14:                                               ; preds = %9
  br i1 %.not17, label %19, label %15

15:                                               ; preds = %14
  %16 = lshr i64 %0, 32
  %17 = trunc nuw i64 %16 to i32
  %18 = trunc i64 %0 to i32
  tail call void (i32, i32, ptr, ...) @pg_log_generic(i32 noundef 2, i32 noundef 0, ptr noundef nonnull @.str.102, i32 noundef %17, i32 noundef %18, i32 noundef %1) #12
  br label %19

19:                                               ; preds = %15, %14
  store volatile i32 1, ptr @time_to_stop, align 4
  br label %34

20:                                               ; preds = %9
  %21 = load i32, ptr @stop_streaming.prevtimeline, align 4
  %22 = icmp eq i32 %21, 0
  %.not18 = icmp eq i32 %21, %1
  %23 = or i1 %22, %.not18
  %or.cond23 = select i1 %.not17, i1 true, i1 %23
  br i1 %or.cond23, label %29, label %24

24:                                               ; preds = %20
  %25 = load i64, ptr @stop_streaming.prevpos, align 8
  %26 = lshr i64 %25, 32
  %27 = trunc nuw i64 %26 to i32
  %28 = trunc i64 %25 to i32
  tail call void (i32, i32, ptr, ...) @pg_log_generic(i32 noundef 2, i32 noundef 0, ptr noundef nonnull @.str.103, i32 noundef %1, i32 noundef %27, i32 noundef %28) #12
  br label %29

29:                                               ; preds = %24, %20
  store i32 %1, ptr @stop_streaming.prevtimeline, align 4
  store i64 %0, ptr @stop_streaming.prevpos, align 8
  %30 = load volatile i32, ptr @time_to_stop, align 4
  %.not19 = icmp eq i32 %30, 0
  br i1 %.not19, label %34, label %31

31:                                               ; preds = %29
  %32 = load i32, ptr @verbose, align 4
  %.not20 = icmp eq i32 %32, 0
  br i1 %.not20, label %34, label %33

33:                                               ; preds = %31
  tail call void (i32, i32, ptr, ...) @pg_log_generic(i32 noundef 2, i32 noundef 0, ptr noundef nonnull @.str.104) #12
  br label %34

34:                                               ; preds = %29, %31, %33, %19
  %.0 = phi i1 [ true, %19 ], [ true, %33 ], [ true, %31 ], [ false, %29 ]
  ret i1 %.0
}